target datalayout = "e-m:e-p270:32:32-p271:32:32-p272:64:64-i64:64-i128:128-f80:128-n8:16:32:64-S128"
target triple = "x86_64-pc-linux-gnu"

; Function Attrs: nounwind uwtable
define dso_local i32 @php_register_extensions(ptr noundef %0, i32 noundef %1) #1 {
  %3 = alloca i32, align 4
  %4 = alloca ptr, align 8
  %5 = alloca i32, align 4
  %6 = alloca ptr, align 8
  %7 = alloca i32, align 4
  store ptr %0, ptr %4, align 8, !tbaa !164
  store i32 %1, ptr %5, align 4, !tbaa !50
  call void @llvm.lifetime.start.p0(i64 8, ptr %6) #18
  %8 = load ptr, ptr %4, align 8, !tbaa !164
  %9 = load i32, ptr %5, align 4, !tbaa !50
  %10 = sext i32 %9 to i64
  %11 = getelementptr inbounds ptr, ptr %8, i64 %10
  store ptr %11, ptr %6, align 8, !tbaa !164
  br label %12

12:                                               ; preds = %27, %2
  %13 = load ptr, ptr %4, align 8, !tbaa !164
  %14 = load ptr, ptr %6, align 8, !tbaa !164
  %15 = icmp ult ptr %13, %14
  br i1 %15, label %16, label %30

16:                                               ; preds = %12
  %17 = load ptr, ptr %4, align 8, !tbaa !164
  %18 = load ptr, ptr %17, align 8, !tbaa !163
  %19 = icmp ne ptr %18, null
  br i1 %19, label %20, label %27

20:                                               ; preds = %16
  %21 = load ptr, ptr %4, align 8, !tbaa !164
  %22 = load ptr, ptr %21, align 8, !tbaa !163
  %23 = call ptr @zend_register_internal_module(ptr noundef %22)
  %24 = icmp eq ptr %23, null
  br i1 %24, label %25, label %26

25:                                               ; preds = %20
  store i32 -1, ptr %3, align 4
  store i32 1, ptr %7, align 4
  br label %31

26:                                               ; preds = %20
  br label %27

27:                                               ; preds = %26, %16
  %28 = load ptr, ptr %4, align 8, !tbaa !164
  %29 = getelementptr inbounds nuw ptr, ptr %28, i32 1
  store ptr %29, ptr %4, align 8, !tbaa !164
  br label %12

30:                                               ; preds = %12
  store i32 0, ptr %3, align 4
  store i32 1, ptr %7, align 4
  br label %31

31:                                               ; preds = %30, %25
  call void @llvm.lifetime.end.p0(i64 8, ptr %6) #18
  %32 = load i32, ptr %3, align 4
  ret i32 %32
}