; Function Attrs: nounwind uwtable
define dso_local range(i32 -1, 1) i32 @php_register_extensions(ptr noundef readonly captures(address) %0, i32 noundef %1) local_unnamed_addr #2 {
  %3 = sext i32 %1 to i64
  %4 = getelementptr inbounds ptr, ptr %0, i64 %3
  %5 = icmp sgt i32 %1, 0
  br i1 %5, label %.lr.ph, label %._crit_edge

.lr.ph:                                           ; preds = %2, %10
  %.079 = phi ptr [ %11, %10 ], [ %0, %2 ]
  %6 = load ptr, ptr %.079, align 8, !tbaa !146
  %.not = icmp eq ptr %6, null
  br i1 %.not, label %10, label %7

7:                                                ; preds = %.lr.ph
  %8 = tail call ptr @zend_register_internal_module(ptr noundef nonnull %6) #28
  %9 = icmp eq ptr %8, null
  br i1 %9, label %._crit_edge, label %10

10:                                               ; preds = %7, %.lr.ph
  %11 = getelementptr inbounds nuw i8, ptr %.079, i64 8
  %12 = icmp ult ptr %11, %4
  br i1 %12, label %.lr.ph, label %._crit_edge

._crit_edge:                                      ; preds = %7, %10, %2
  %.0 = phi i32 [ 0, %2 ], [ 0, %10 ], [ -1, %7 ]
  ret i32 %.0
}